	.file	"bfs.cpp"
	.text
.Ltext0:
	.section	.rodata.str1.8,"aMS",@progbits,1
	.align 8
.LC0:
	.string	"Usage: %s <num_threads> <input_file>\n"
	.section	.text.unlikely,"ax",@progbits
.LCOLDB1:
	.text
.LHOTB1:
	.p2align 4,,15
	.section	.text.unlikely
.Ltext_cold0:
	.text
	.globl	_Z5UsageiPPc
	.type	_Z5UsageiPPc, @function
_Z5UsageiPPc:
.LFB36:
	.file 1 "bfs.cpp"
	.loc 1 23 0
	.cfi_startproc
.LVL0:
	.loc 1 25 0
	movq	(%rsi), %rdx
	movq	stderr(%rip), %rdi
.LVL1:
	movl	$.LC0, %esi
.LVL2:
	xorl	%eax, %eax
	jmp	fprintf
.LVL3:
	.cfi_endproc
.LFE36:
	.size	_Z5UsageiPPc, .-_Z5UsageiPPc
	.section	.text.unlikely
.LCOLDE1:
	.text
.LHOTE1:
	.section	.rodata.str1.1,"aMS",@progbits,1
.LC2:
	.string	"Reading File"
.LC3:
	.string	"r"
.LC4:
	.string	"Error Reading graph file"
.LC5:
	.string	"%d"
.LC6:
	.string	"%d %d"
.LC7:
	.string	"Start traversing the tree"
.LC8:
	.string	"w"
.LC9:
	.string	"result.txt"
.LC10:
	.string	"Result stored in result.txt"
.LC11:
	.string	"%d) cost:%d\n"
	.section	.text.unlikely
.LCOLDB12:
	.text
.LHOTB12:
	.p2align 4,,15
	.globl	_Z8BFSGraphiPPc
	.type	_Z8BFSGraphiPPc, @function
_Z8BFSGraphiPPc:
.LFB38:
	.loc 1 42 0
	.cfi_startproc
.LVL4:
	pushq	%r15
	.cfi_def_cfa_offset 16
	.cfi_offset 15, -16
	pushq	%r14
	.cfi_def_cfa_offset 24
	.cfi_offset 14, -24
	pushq	%r13
	.cfi_def_cfa_offset 32
	.cfi_offset 13, -32
	pushq	%r12
	.cfi_def_cfa_offset 40
	.cfi_offset 12, -40
	pushq	%rbp
	.cfi_def_cfa_offset 48
	.cfi_offset 6, -48
	pushq	%rbx
	.cfi_def_cfa_offset 56
	.cfi_offset 3, -56
	movq	%rsi, %rbx
	subq	$72, %rsp
	.cfi_def_cfa_offset 128
.LBB18:
	.loc 1 46 0
	cmpl	$3, %edi
	jne	.L41
.LVL5:
.LBB19:
.LBB20:
	.file 2 "/usr/include/stdlib.h"
	.loc 2 286 0
	movq	8(%rsi), %rdi
.LVL6:
	movl	$10, %edx
	xorl	%esi, %esi
.LVL7:
	call	strtol
.LVL8:
.LBE20:
.LBE19:
	.loc 1 52 0
	movq	16(%rbx), %rbx
.LVL9:
	.loc 1 54 0
	movl	$.LC2, %edi
	call	puts
.LVL10:
	.loc 1 56 0
	movl	$.LC3, %esi
	movq	%rbx, %rdi
	call	fopen
.LVL11:
	.loc 1 57 0
	testq	%rax, %rax
	.loc 1 56 0
	movq	%rax, fp(%rip)
	.loc 1 57 0
	je	.L42
	.loc 1 65 0
	movl	$no_of_nodes, %edx
	movl	$.LC5, %esi
	movq	%rax, %rdi
	xorl	%eax, %eax
	.loc 1 63 0
	movl	$0, 44(%rsp)
	.loc 1 65 0
	call	fscanf
.LVL12:
	.loc 1 68 0
	movslq	no_of_nodes(%rip), %rbx
.LVL13:
	leaq	0(,%rbx,8), %rdi
	movq	%rbx, %rbp
	call	malloc
.LVL14:
	.loc 1 69 0
	movq	%rbx, %rdi
	.loc 1 68 0
	movq	%rax, %r14
.LVL15:
	.loc 1 69 0
	call	malloc
.LVL16:
	.loc 1 70 0
	movq	%rbx, %rdi
	.loc 1 69 0
	movq	%rax, %r13
.LVL17:
	.loc 1 70 0
	call	malloc
.LVL18:
	.loc 1 71 0
	movq	%rbx, %rdi
	.loc 1 70 0
	movq	%rax, %r12
.LVL19:
	.loc 1 71 0
	call	malloc
.LVL20:
.LBB21:
	.loc 1 75 0
	testl	%ebp, %ebp
.LBE21:
	.loc 1 71 0
	movq	%rax, %rbx
.LVL21:
.LBB22:
	.loc 1 75 0
	je	.L9
	xorl	%ebp, %ebp
.LVL22:
	.p2align 4,,10
	.p2align 3
.L6:
	.loc 1 77 0
	movq	fp(%rip), %rdi
	leaq	52(%rsp), %rcx
	leaq	48(%rsp), %rdx
	xorl	%eax, %eax
	movl	$.LC6, %esi
	call	fscanf
.LVL23:
	.loc 1 78 0
	movl	%ebp, %eax
	movl	48(%rsp), %ecx
	.loc 1 75 0
	addl	$1, %ebp
.LVL24:
	.loc 1 78 0
	leaq	(%r14,%rax,8), %rdx
	.loc 1 75 0
	cmpl	%ebp, no_of_nodes(%rip)
	.loc 1 80 0
	movb	$0, 0(%r13,%rax)
	.loc 1 81 0
	movb	$0, (%r12,%rax)
	.loc 1 82 0
	movb	$0, (%rbx,%rax)
	.loc 1 78 0
	movl	%ecx, (%rdx)
	.loc 1 79 0
	movl	52(%rsp), %ecx
	movl	%ecx, 4(%rdx)
	.loc 1 75 0
	ja	.L6
.LVL25:
.L9:
.LBE22:
	.loc 1 86 0
	movq	fp(%rip), %rdi
	leaq	44(%rsp), %rdx
	movl	$.LC5, %esi
	xorl	%eax, %eax
	call	fscanf
.LVL26:
	.loc 1 93 0
	movq	fp(%rip), %rdi
	movl	$edge_list_size, %edx
	movl	$.LC5, %esi
	xorl	%eax, %eax
	.loc 1 91 0
	movb	$1, (%rbx)
	.loc 1 87 0
	movl	$0, 44(%rsp)
	.loc 1 90 0
	movb	$1, 0(%r13)
	.loc 1 93 0
	call	fscanf
.LVL27:
	.loc 1 96 0
	movslq	edge_list_size(%rip), %rdi
	movq	%rdi, %rbp
	salq	$2, %rdi
	call	malloc
.LVL28:
.LBB23:
	.loc 1 97 0
	testl	%ebp, %ebp
.LBE23:
	.loc 1 96 0
	movq	%rax, %r15
.LVL29:
.LBB24:
	.loc 1 97 0
	jle	.L8
	movq	%rax, %rcx
	xorl	%ebp, %ebp
.LVL30:
	.p2align 4,,10
	.p2align 3
.L12:
	.loc 1 99 0
	movq	fp(%rip), %rdi
	leaq	56(%rsp), %rdx
	movl	$.LC5, %esi
	xorl	%eax, %eax
	movq	%rcx, 8(%rsp)
.LVL31:
	.loc 1 97 0
	addl	$1, %ebp
.LVL32:
	.loc 1 99 0
	call	fscanf
.LVL33:
	.loc 1 100 0
	movq	fp(%rip), %rdi
	leaq	60(%rsp), %rdx
	xorl	%eax, %eax
	movl	$.LC5, %esi
	call	fscanf
.LVL34:
	.loc 1 101 0
	movq	8(%rsp), %rcx
	movl	56(%rsp), %eax
	addq	$4, %rcx
	movl	%eax, -4(%rcx)
	.loc 1 97 0
	cmpl	%ebp, edge_list_size(%rip)
	jg	.L12
.LVL35:
.L8:
.LBE24:
	.loc 1 104 0
	movq	fp(%rip), %rdi
	testq	%rdi, %rdi
	je	.L11
	.loc 1 105 0
	call	fclose
.LVL36:
.L11:
	.loc 1 108 0
	movslq	no_of_nodes(%rip), %rdi
	movl	%edi, 8(%rsp)
	salq	$2, %rdi
	call	malloc
.LVL37:
.LBB25:
	.loc 1 109 0
	movl	8(%rsp), %edx
.LBE25:
	.loc 1 108 0
	movq	%rax, %rbp
.LVL38:
.LBB26:
	.loc 1 109 0
	testl	%edx, %edx
	jle	.L16
	subl	$1, %edx
	leaq	4(%rbp,%rdx,4), %rdx
.LVL39:
	.p2align 4,,10
	.p2align 3
.L15:
	.loc 1 110 0 discriminator 3
	movl	$-1, (%rax)
	addq	$4, %rax
	.loc 1 109 0 discriminator 3
	cmpq	%rdx, %rax
	jne	.L15
.L16:
.LBE26:
	.loc 1 111 0
	movslq	44(%rsp), %rax
	.loc 1 113 0
	movl	$.LC7, %edi
	.loc 1 111 0
	movl	$0, 0(%rbp,%rax,4)
	.loc 1 113 0
	call	puts
.LVL40:
	movl	no_of_nodes(%rip), %r9d
	.p2align 4,,10
	.p2align 3
.L14:
.LVL41:
.LBB27:
	.loc 1 128 0
	testl	%r9d, %r9d
	jle	.L17
	xorl	%eax, %eax
.LVL42:
	.p2align 4,,10
	.p2align 3
.L19:
.LBB28:
	.loc 1 130 0
	cmpb	$0, 0(%r13,%rax)
	je	.L21
.LBB29:
.LBB30:
	.loc 1 132 0
	movl	(%r14,%rax,8), %esi
.LVL43:
	movl	4(%r14,%rax,8), %ecx
.LBE30:
	.loc 1 131 0
	movb	$0, 0(%r13,%rax)
.LBB32:
	.loc 1 132 0
	addl	%esi, %ecx
	cmpl	%ecx, %esi
	jge	.L21
	subl	%esi, %ecx
	movslq	%esi, %rdi
	subl	$1, %ecx
	leaq	(%r15,%rdi,4), %rdx
	leaq	1(%rdi,%rcx), %rcx
	leaq	(%r15,%rcx,4), %rdi
.LVL44:
	.p2align 4,,10
	.p2align 3
.L23:
.LBB31:
	.loc 1 135 0
	movslq	(%rdx), %rcx
	cmpb	$0, (%rbx,%rcx)
	jne	.L22
	.loc 1 137 0
	movl	0(%rbp,%rax,4), %esi
	.loc 1 138 0
	movb	$1, (%r12,%rcx)
	.loc 1 137 0
	addl	$1, %esi
	movl	%esi, 0(%rbp,%rcx,4)
.L22:
	addq	$4, %rdx
.LVL45:
.LBE31:
	.loc 1 132 0 discriminator 2
	cmpq	%rdi, %rdx
	jne	.L23
.LVL46:
.L21:
	addq	$1, %rax
.LVL47:
.LBE32:
.LBE29:
.LBE28:
	.loc 1 128 0
	cmpl	%eax, %r9d
	jg	.L19
	xorl	%eax, %eax
	xorl	%edx, %edx
.LVL48:
	.p2align 4,,10
	.p2align 3
.L20:
.LBE27:
.LBB33:
	.loc 1 150 0
	cmpb	$0, (%r12,%rax)
	je	.L26
	.loc 1 151 0
	movb	$1, 0(%r13,%rax)
	.loc 1 152 0
	movb	$1, (%rbx,%rax)
.LVL49:
	.loc 1 153 0
	movl	$1, %edx
	.loc 1 154 0
	movb	$0, (%r12,%rax)
.LVL50:
.L26:
	addq	$1, %rax
.LVL51:
	.loc 1 148 0 discriminator 2
	cmpl	%eax, %r9d
	jg	.L20
.LBE33:
	.loc 1 117 0
	testb	%dl, %dl
	jne	.L14
.LVL52:
.L17:
	.loc 1 164 0
	movl	$.LC8, %esi
	movl	$.LC9, %edi
	call	fopen
.LVL53:
	movq	%rax, 24(%rsp)
.LVL54:
.LBB34:
	.loc 1 165 0
	movl	no_of_nodes(%rip), %eax
	xorl	%r9d, %r9d
	movq	%rbp, %r10
	testl	%eax, %eax
	jle	.L25
.LVL55:
	.p2align 4,,10
	.p2align 3
.L29:
	.loc 1 166 0
	movl	(%r10), %ecx
	movq	24(%rsp), %rdi
	movl	%r9d, %edx
	xorl	%eax, %eax
	movl	$.LC11, %esi
	movq	%r10, 16(%rsp)
	movl	%r9d, 8(%rsp)
	call	fprintf
.LVL56:
	.loc 1 165 0
	movl	8(%rsp), %r9d
	movq	16(%rsp), %r10
	addl	$1, %r9d
.LVL57:
	addq	$4, %r10
	cmpl	%r9d, no_of_nodes(%rip)
	jg	.L29
.LVL58:
.L25:
.LBE34:
	.loc 1 167 0
	movq	24(%rsp), %rdi
	call	fclose
.LVL59:
	.loc 1 168 0
	movl	$.LC10, %edi
	call	puts
.LVL60:
	.loc 1 172 0
	movq	%r14, %rdi
	call	free
.LVL61:
	.loc 1 173 0
	movq	%r15, %rdi
	call	free
.LVL62:
	.loc 1 174 0
	movq	%r13, %rdi
	call	free
.LVL63:
	.loc 1 175 0
	movq	%r12, %rdi
	call	free
.LVL64:
	.loc 1 176 0
	movq	%rbx, %rdi
	call	free
.LVL65:
.LBE18:
	.loc 1 179 0
	addq	$72, %rsp
	.cfi_remember_state
	.cfi_def_cfa_offset 56
.LBB37:
	.loc 1 177 0
	movq	%rbp, %rdi
.LBE37:
	.loc 1 179 0
	popq	%rbx
	.cfi_def_cfa_offset 48
.LVL66:
	popq	%rbp
	.cfi_def_cfa_offset 40
.LVL67:
	popq	%r12
	.cfi_def_cfa_offset 32
.LVL68:
	popq	%r13
	.cfi_def_cfa_offset 24
.LVL69:
	popq	%r14
	.cfi_def_cfa_offset 16
.LVL70:
	popq	%r15
	.cfi_def_cfa_offset 8
.LVL71:
.LBB38:
	.loc 1 177 0
	jmp	free
.LVL72:
.L42:
	.cfi_restore_state
	.loc 1 59 0
	movl	$.LC4, %edi
	call	puts
.LVL73:
.LBE38:
	.loc 1 179 0
	addq	$72, %rsp
	.cfi_remember_state
	.cfi_def_cfa_offset 56
	popq	%rbx
	.cfi_def_cfa_offset 48
.LVL74:
	popq	%rbp
	.cfi_def_cfa_offset 40
	popq	%r12
	.cfi_def_cfa_offset 32
	popq	%r13
	.cfi_def_cfa_offset 24
	popq	%r14
	.cfi_def_cfa_offset 16
	popq	%r15
	.cfi_def_cfa_offset 8
	ret
.LVL75:
.L41:
	.cfi_restore_state
.LBB39:
.LBB35:
.LBB36:
	.loc 1 25 0
	movq	(%rsi), %rdx
	movq	stderr(%rip), %rdi
.LVL76:
	movl	$.LC0, %esi
	xorl	%eax, %eax
	call	fprintf
.LVL77:
.LBE36:
.LBE35:
	.loc 1 48 0
	xorl	%edi, %edi
	call	exit
.LVL78:
.LBE39:
	.cfi_endproc
.LFE38:
	.size	_Z8BFSGraphiPPc, .-_Z8BFSGraphiPPc
	.section	.text.unlikely
.LCOLDE12:
	.text
.LHOTE12:
	.section	.text.unlikely
.LCOLDB13:
	.section	.text.startup,"ax",@progbits
.LHOTB13:
	.p2align 4,,15
	.globl	main
	.type	main, @function
main:
.LFB37:
	.loc 1 32 0
	.cfi_startproc
.LVL79:
	subq	$8, %rsp
	.cfi_def_cfa_offset 16
	.loc 1 33 0
	movl	$0, no_of_nodes(%rip)
	.loc 1 34 0
	movl	$0, edge_list_size(%rip)
	.loc 1 35 0
	call	_Z8BFSGraphiPPc
.LVL80:
	.loc 1 36 0
	xorl	%eax, %eax
	addq	$8, %rsp
	.cfi_def_cfa_offset 8
	ret
	.cfi_endproc
.LFE37:
	.size	main, .-main
	.section	.text.unlikely
.LCOLDE13:
	.section	.text.startup
.LHOTE13:
	.globl	fp
	.bss
	.align 8
	.type	fp, @object
	.size	fp, 8
fp:
	.zero	8
	.globl	edge_list_size
	.align 4
	.type	edge_list_size, @object
	.size	edge_list_size, 4
edge_list_size:
	.zero	4
	.globl	no_of_nodes
	.align 4
	.type	no_of_nodes, @object
	.size	no_of_nodes, 4
no_of_nodes:
	.zero	4
	.text
.Letext0:
	.section	.text.unlikely
.Letext_cold0:
	.file 3 "/opt/gcc-4.9.1/lib/gcc/x86_64-unknown-linux-gnu/4.9.1/include/stddef.h"
	.file 4 "/usr/include/x86_64-linux-gnu/bits/types.h"
	.file 5 "/usr/include/stdio.h"
	.file 6 "/usr/include/libio.h"
	.section	.note.GNU-stack,"",@progbits
